target datalayout = "e-m:e-p270:32:32-p271:32:32-p272:64:64-i64:64-i128:128-f80:128-n8:16:32:64-S128"
target triple = "x86_64-pc-linux-gnu"

%"struct.folly::unsafe_default_initialized_cv" = type { i8 }
%"struct.std::atomic.31" = type { %"struct.std::__atomic_base.32" }
%"struct.std::__atomic_base.32" = type { i64 }
%"class.std::chrono::duration" = type { i64 }
%"class.std::__shared_count" = type { ptr }
%"class.folly::Function" = type { %"union.folly::detail::function::Data", ptr, ptr }
%"union.folly::detail::function::Data" = type { %"struct.folly::detail::function::Data::BigTrivialLayout", [24 x i8] }
%"struct.folly::detail::function::Data::BigTrivialLayout" = type { ptr, i64, i64 }
%"class.folly::EventBaseThreadTimekeeper" = type { %"class.folly::Timekeeper", ptr }
%"class.folly::Timekeeper" = type { ptr }
%"class.std::chrono::duration.2" = type { i64 }
%"class.folly::ThreadWheelTimekeeper" = type { %"class.folly::EventBaseThreadTimekeeper", %"class.folly::EventBase", %"class.std::thread", [8 x i8] }
%"class.folly::EventBase" = type { %"class.folly::TimeoutManager", %"class.folly::DrivableExecutor", %"class.folly::IOExecutor", %"class.folly::SequencedExecutor", %"class.folly::ScheduledExecutor", %"class.folly::GetThreadIdCollector", %"class.std::chrono::duration.2", i8, %"class.std::chrono::duration.2", i8, [7 x i8], %"class.std::optional", %"struct.std::atomic", %"struct.std::atomic.4", %"class.std::unique_ptr.5", %"class.boost::intrusive::list", %"class.boost::intrusive::list", %"class.boost::intrusive::list", %"struct.folly::Synchronized", %"struct.folly::Synchronized", ptr, %"struct.std::atomic.21", %"class.std::unique_ptr.23", %"struct.std::atomic.31", i8, %"class.std::chrono::duration", %"class.folly::EventBase::SmoothLoopTime", %"class.folly::EventBase::SmoothLoopTime", i8, %"class.folly::Function", i64, i64, %"class.std::chrono::time_point", %"class.std::shared_ptr", i32, %"class.boost::intrusive::list.33", %"class.std::__cxx11::basic_string", %"class.folly::F14FastMap", %"struct.folly::Synchronized.42", %"class.folly::basic_once_flag", %"class.std::unique_ptr.61", %"class.std::unique_ptr.69", %"class.std::unique_ptr.77", [8 x i8] }
%"class.folly::TimeoutManager" = type { ptr, %"class.std::unique_ptr" }
%"class.std::unique_ptr" = type { %"struct.std::__uniq_ptr_data" }
%"struct.std::__uniq_ptr_data" = type { %"class.std::__uniq_ptr_impl" }
%"class.std::__uniq_ptr_impl" = type { %"class.std::tuple" }
%"class.std::tuple" = type { %"struct.std::_Tuple_impl" }
%"struct.std::_Tuple_impl" = type { %"struct.std::_Head_base.1" }
%"struct.std::_Head_base.1" = type { ptr }
%"class.folly::DrivableExecutor" = type { %"class.folly::Executor" }
%"class.folly::Executor" = type { ptr }
%"class.folly::IOExecutor" = type { %"class.folly::Executor" }
%"class.folly::SequencedExecutor" = type { %"class.folly::Executor" }
%"class.folly::ScheduledExecutor" = type { %"class.folly::Executor" }
%"class.folly::GetThreadIdCollector" = type { ptr }
%"class.std::optional" = type { %"struct.std::_Optional_base" }
%"struct.std::_Optional_base" = type { %"struct.std::_Optional_payload" }
%"struct.std::_Optional_payload" = type { %"struct.std::_Optional_payload_base.base", [7 x i8] }
%"struct.std::_Optional_payload_base.base" = type <{ %"union.std::_Optional_payload_base<folly::EventBase::LoopState>::_Storage", i8 }>
%"union.std::_Optional_payload_base<folly::EventBase::LoopState>::_Storage" = type { %"struct.folly::EventBase::LoopState" }
%"struct.folly::EventBase::LoopState" = type { %"class.std::chrono::time_point", %"class.std::chrono::time_point" }
%"struct.std::atomic" = type { %"struct.std::__atomic_base" }
%"struct.std::__atomic_base" = type { i32 }
%"struct.std::atomic.4" = type { %"class.std::thread::id" }
%"class.std::thread::id" = type { i64 }
%"class.std::unique_ptr.5" = type { %"struct.std::__uniq_ptr_data.6" }
%"struct.std::__uniq_ptr_data.6" = type { %"class.std::__uniq_ptr_impl.7" }
%"class.std::__uniq_ptr_impl.7" = type { %"class.std::tuple.8" }
%"class.std::tuple.8" = type { %"struct.std::_Tuple_impl.9" }
%"struct.std::_Tuple_impl.9" = type { %"struct.std::_Head_base.12" }
%"struct.std::_Head_base.12" = type { ptr }
%"class.boost::intrusive::list" = type { %"class.boost::intrusive::list_impl" }
%"class.boost::intrusive::list_impl" = type { %"struct.boost::intrusive::list_impl<boost::intrusive::bhtraits<folly::EventBase::LoopCallback, boost::intrusive::list_node_traits<void *>, boost::intrusive::auto_unlink, boost::intrusive::dft_tag, 1>, unsigned long, false, void>::data_t" }
%"struct.boost::intrusive::list_impl<boost::intrusive::bhtraits<folly::EventBase::LoopCallback, boost::intrusive::list_node_traits<void *>, boost::intrusive::auto_unlink, boost::intrusive::dft_tag, 1>, unsigned long, false, void>::data_t" = type { %"struct.boost::intrusive::list_impl<boost::intrusive::bhtraits<folly::EventBase::LoopCallback, boost::intrusive::list_node_traits<void *>, boost::intrusive::auto_unlink, boost::intrusive::dft_tag, 1>, unsigned long, false, void>::root_plus_size" }
%"struct.boost::intrusive::list_impl<boost::intrusive::bhtraits<folly::EventBase::LoopCallback, boost::intrusive::list_node_traits<void *>, boost::intrusive::auto_unlink, boost::intrusive::dft_tag, 1>, unsigned long, false, void>::root_plus_size" = type { %"struct.boost::intrusive::detail::default_header_holder" }
%"struct.boost::intrusive::detail::default_header_holder" = type { %"struct.boost::intrusive::list_node" }
%"struct.boost::intrusive::list_node" = type { ptr, ptr }
%"struct.folly::Synchronized" = type <{ %"class.boost::intrusive::list.14", %"class.folly::SharedMutexImpl", [4 x i8] }>
%"class.boost::intrusive::list.14" = type { %"class.boost::intrusive::list_impl.15" }
%"class.boost::intrusive::list_impl.15" = type { %"struct.boost::intrusive::list_impl<boost::intrusive::bhtraits<folly::EventBase::OnDestructionCallback, boost::intrusive::list_node_traits<void *>, boost::intrusive::normal_link, boost::intrusive::dft_tag, 1>, unsigned long, true, void>::data_t" }
%"struct.boost::intrusive::list_impl<boost::intrusive::bhtraits<folly::EventBase::OnDestructionCallback, boost::intrusive::list_node_traits<void *>, boost::intrusive::normal_link, boost::intrusive::dft_tag, 1>, unsigned long, true, void>::data_t" = type { %"struct.boost::intrusive::list_impl<boost::intrusive::bhtraits<folly::EventBase::OnDestructionCallback, boost::intrusive::list_node_traits<void *>, boost::intrusive::normal_link, boost::intrusive::dft_tag, 1>, unsigned long, true, void>::root_plus_size" }
%"struct.boost::intrusive::list_impl<boost::intrusive::bhtraits<folly::EventBase::OnDestructionCallback, boost::intrusive::list_node_traits<void *>, boost::intrusive::normal_link, boost::intrusive::dft_tag, 1>, unsigned long, true, void>::root_plus_size" = type { %"struct.boost::intrusive::detail::size_holder.18", %"struct.boost::intrusive::detail::default_header_holder" }
%"struct.boost::intrusive::detail::size_holder.18" = type { i64 }
%"class.folly::SharedMutexImpl" = type { %"struct.std::atomic.19" }
%"struct.std::atomic.19" = type { %"struct.std::__atomic_base.20" }
%"struct.std::__atomic_base.20" = type { i32 }
%"struct.std::atomic.21" = type { %"struct.std::__atomic_base.22" }
%"struct.std::__atomic_base.22" = type { i8 }
%"class.std::unique_ptr.23" = type { %"struct.std::__uniq_ptr_data.24" }
%"struct.std::__uniq_ptr_data.24" = type { %"class.std::__uniq_ptr_impl.25" }
%"class.std::__uniq_ptr_impl.25" = type { %"class.std::tuple.26" }
%"class.std::tuple.26" = type { %"struct.std::_Tuple_impl.27" }
%"struct.std::_Tuple_impl.27" = type { %"struct.std::_Head_base.30" }
%"struct.std::_Head_base.30" = type { ptr }
%"class.folly::EventBase::SmoothLoopTime" = type { double, double, %"class.std::chrono::duration", %"class.std::chrono::duration", i64 }
%"class.std::chrono::time_point" = type { %"class.std::chrono::duration.3" }
%"class.std::chrono::duration.3" = type { i64 }
%"class.std::shared_ptr" = type { %"class.std::__shared_ptr" }
%"class.std::__shared_ptr" = type { ptr, %"class.std::__shared_count" }
%"class.boost::intrusive::list.33" = type { %"class.boost::intrusive::list_impl.34" }
%"class.boost::intrusive::list_impl.34" = type { %"struct.boost::intrusive::list_impl<boost::intrusive::bhtraits<folly::ExecutionObserver, boost::intrusive::list_node_traits<void *>, boost::intrusive::auto_unlink, boost::intrusive::dft_tag, 1>, unsigned long, false, void>::data_t" }
%"struct.boost::intrusive::list_impl<boost::intrusive::bhtraits<folly::ExecutionObserver, boost::intrusive::list_node_traits<void *>, boost::intrusive::auto_unlink, boost::intrusive::dft_tag, 1>, unsigned long, false, void>::data_t" = type { %"struct.boost::intrusive::list_impl<boost::intrusive::bhtraits<folly::ExecutionObserver, boost::intrusive::list_node_traits<void *>, boost::intrusive::auto_unlink, boost::intrusive::dft_tag, 1>, unsigned long, false, void>::root_plus_size" }
%"struct.boost::intrusive::list_impl<boost::intrusive::bhtraits<folly::ExecutionObserver, boost::intrusive::list_node_traits<void *>, boost::intrusive::auto_unlink, boost::intrusive::dft_tag, 1>, unsigned long, false, void>::root_plus_size" = type { %"struct.boost::intrusive::detail::default_header_holder" }
%"class.std::__cxx11::basic_string" = type { %"struct.std::__cxx11::basic_string<char>::_Alloc_hider", i64, %union.anon }
%"struct.std::__cxx11::basic_string<char>::_Alloc_hider" = type { ptr }
%union.anon = type { i64, [8 x i8] }
%"class.folly::F14FastMap" = type { %"class.folly::f14::detail::F14VectorMapImpl" }
%"class.folly::f14::detail::F14VectorMapImpl" = type { %"class.folly::f14::detail::F14BasicMap" }
%"class.folly::f14::detail::F14BasicMap" = type { %"class.folly::f14::detail::F14Table" }
%"class.folly::f14::detail::F14Table" = type { %"class.folly::f14::detail::VectorContainerPolicy", ptr, %"struct.folly::f14::detail::SizeAndChunkShiftAndPackedBegin" }
%"class.folly::f14::detail::VectorContainerPolicy" = type { ptr }
%"struct.folly::f14::detail::SizeAndChunkShiftAndPackedBegin" = type { %"struct.folly::f14::detail::PackedSizeAndChunkShift" }
%"struct.folly::f14::detail::PackedSizeAndChunkShift" = type { i64 }
%"struct.folly::Synchronized.42" = type <{ %"class.folly::F14FastSet", %"class.folly::SharedMutexImpl", [4 x i8] }>
%"class.folly::F14FastSet" = type { %"class.folly::F14ValueSet" }
%"class.folly::F14ValueSet" = type { %"class.folly::f14::detail::F14BasicSet" }
%"class.folly::f14::detail::F14BasicSet" = type { %"class.folly::f14::detail::F14Table.45" }
%"class.folly::f14::detail::F14Table.45" = type { ptr, %"struct.folly::f14::detail::SizeAndChunkShiftAndPackedBegin.59" }
%"struct.folly::f14::detail::SizeAndChunkShiftAndPackedBegin.59" = type { %"struct.folly::f14::detail::PackedSizeAndChunkShift", %"class.folly::f14::detail::PackedChunkItemPtr" }
%"class.folly::f14::detail::PackedChunkItemPtr" = type { i64 }
%"class.folly::basic_once_flag" = type { %"struct.std::atomic.21", %"class.folly::SharedMutexImpl" }
%"class.std::unique_ptr.61" = type { %"struct.std::__uniq_ptr_data.62" }
%"struct.std::__uniq_ptr_data.62" = type { %"class.std::__uniq_ptr_impl.63" }
%"class.std::__uniq_ptr_impl.63" = type { %"class.std::tuple.64" }
%"class.std::tuple.64" = type { %"struct.std::_Tuple_impl.65" }
%"struct.std::_Tuple_impl.65" = type { %"struct.std::_Head_base.68" }
%"struct.std::_Head_base.68" = type { ptr }
%"class.std::unique_ptr.69" = type { %"struct.std::__uniq_ptr_data.70" }
%"struct.std::__uniq_ptr_data.70" = type { %"class.std::__uniq_ptr_impl.71" }
%"class.std::__uniq_ptr_impl.71" = type { %"class.std::tuple.72" }
%"class.std::tuple.72" = type { %"struct.std::_Tuple_impl.73" }
%"struct.std::_Tuple_impl.73" = type { %"struct.std::_Head_base.76" }
%"struct.std::_Head_base.76" = type { ptr }
%"class.std::unique_ptr.77" = type { %"struct.std::__uniq_ptr_data.78" }
%"struct.std::__uniq_ptr_data.78" = type { %"class.std::__uniq_ptr_impl.79" }
%"class.std::__uniq_ptr_impl.79" = type { %"class.std::tuple.80" }
%"class.std::tuple.80" = type { %"struct.std::_Tuple_impl.81" }
%"struct.std::_Tuple_impl.81" = type { %"struct.std::_Head_base.84" }
%"struct.std::_Head_base.84" = type { ptr }
%"class.std::thread" = type { %"class.std::thread::id" }
%class.anon.97 = type { ptr }

@_ZN5folly26unsafe_default_initializedE = linkonce_odr constant %"struct.folly::unsafe_default_initialized_cv" undef, comdat, align 1

; Function Attrs: inlinehint mustprogress nounwind uwtable
define linkonce_odr noundef zeroext i1 @_ZSteqNSt6thread2idES0_(i64 %0, i64 %1) #5 comdat {
  %3 = alloca %"class.std::thread::id", align 8
  %4 = alloca %"class.std::thread::id", align 8
  %5 = getelementptr inbounds nuw %"class.std::thread::id", ptr %3, i32 0, i32 0
  store i64 %0, ptr %5, align 8
  %6 = getelementptr inbounds nuw %"class.std::thread::id", ptr %4, i32 0, i32 0
  store i64 %1, ptr %6, align 8
  %7 = getelementptr inbounds nuw %"class.std::thread::id", ptr %3, i32 0, i32 0
  %8 = load i64, ptr %7, align 8, !tbaa !79
  %9 = getelementptr inbounds nuw %"class.std::thread::id", ptr %4, i32 0, i32 0
  %10 = load i64, ptr %9, align 8, !tbaa !79
  %11 = icmp eq i64 %8, %10
  ret i1 %11
}

; Function Attrs: mustprogress nounwind uwtable
define linkonce_odr void @_ZNSt6thread2idC2Ev(ptr noundef nonnull align 8 dereferenceable(8) %0) unnamed_addr #0 comdat align 2 {
  %2 = alloca ptr, align 8
  store ptr %0, ptr %2, align 8, !tbaa !77
  %3 = load ptr, ptr %2, align 8
  %4 = getelementptr inbounds nuw %"class.std::thread::id", ptr %3, i32 0, i32 0
  store i64 0, ptr %4, align 8, !tbaa !79
  ret void
}

; Function Attrs: alwaysinline mustprogress noreturn nounwind uwtable
define linkonce_odr void @_ZSt11__terminatev() #17 comdat {
  call void @_ZSt9terminatev() #28
  unreachable
}

; Function Attrs: mustprogress nounwind uwtable
define linkonce_odr noundef zeroext i1 @_ZNKSt6thread8joinableEv(ptr noundef nonnull align 8 dereferenceable(8) %0) #0 comdat align 2 {
  %2 = alloca ptr, align 8
  %3 = alloca %"class.std::thread::id", align 8
  %4 = alloca %"class.std::thread::id", align 8
  store ptr %0, ptr %2, align 8, !tbaa !59
  %5 = load ptr, ptr %2, align 8
  %6 = getelementptr inbounds nuw %"class.std::thread", ptr %5, i32 0, i32 0
  call void @llvm.memcpy.p0.p0.i64(ptr align 8 %3, ptr align 8 %6, i64 8, i1 false), !tbaa.struct !31
  call void @_ZNSt6thread2idC2Ev(ptr noundef nonnull align 8 dereferenceable(8) %4) #21
  %7 = getelementptr inbounds nuw %"class.std::thread::id", ptr %3, i32 0, i32 0
  %8 = load i64, ptr %7, align 8
  %9 = getelementptr inbounds nuw %"class.std::thread::id", ptr %4, i32 0, i32 0
  %10 = load i64, ptr %9, align 8
  %11 = call noundef zeroext i1 @_ZSteqNSt6thread2idES0_(i64 %8, i64 %10) #21
  %12 = xor i1 %11, true
  ret i1 %12
}

; Function Attrs: mustprogress nounwind uwtable
define linkonce_odr noundef i64 @_ZNK5folly8FunctionIFvvEE4execENS_6detail8function2OpEPNS4_4DataES7_(ptr noundef nonnull align 16 dereferenceable(64) %0, i32 noundef %1, ptr noundef %2, ptr noundef %3) #0 comdat align 2 {
  %5 = alloca i64, align 8
  %6 = alloca ptr, align 8
  %7 = alloca i32, align 4
  %8 = alloca ptr, align 8
  %9 = alloca ptr, align 8
  store ptr %0, ptr %6, align 8, !tbaa !64
  store i32 %1, ptr %7, align 4, !tbaa !119
  store ptr %2, ptr %8, align 8, !tbaa !117
  store ptr %3, ptr %9, align 8, !tbaa !117
  %10 = load ptr, ptr %6, align 8
  %11 = getelementptr inbounds nuw %"class.folly::Function", ptr %10, i32 0, i32 2
  %12 = load ptr, ptr %11, align 8, !tbaa !69
  %13 = icmp ne ptr %12, null
  br i1 %13, label %15, label %14

14:                                               ; preds = %4
  store i64 0, ptr %5, align 8
  br label %22

15:                                               ; preds = %4
  %16 = getelementptr inbounds nuw %"class.folly::Function", ptr %10, i32 0, i32 2
  %17 = load ptr, ptr %16, align 8, !tbaa !69
  %18 = load i32, ptr %7, align 4, !tbaa !119
  %19 = load ptr, ptr %8, align 8, !tbaa !117
  %20 = load ptr, ptr %9, align 8, !tbaa !117
  %21 = call noundef i64 %17(i32 noundef %18, ptr noundef %19, ptr noundef %20) #21
  store i64 %21, ptr %5, align 8
  br label %22

22:                                               ; preds = %15, %14
  %23 = load i64, ptr %5, align 8
  ret i64 %23
}

; Function Attrs: alwaysinline mustprogress nounwind uwtable
define linkonce_odr hidden noundef ptr @_ZNK5folly29unsafe_default_initialized_cvcvT_IPvEEv(ptr noundef nonnull align 1 dereferenceable(1) %0) #13 comdat align 2 {
  %2 = alloca ptr, align 8
  store ptr %0, ptr %2, align 8, !tbaa !115
  ret ptr null
}

; Function Attrs: mustprogress nounwind uwtable
define linkonce_odr void @_ZN5folly10TimekeeperD2Ev(ptr noundef nonnull align 8 dereferenceable(8) %0) unnamed_addr #0 comdat align 2 {
  %2 = alloca ptr, align 8
  store ptr %0, ptr %2, align 8, !tbaa !7
  ret void
}

; Function Attrs: mustprogress nounwind uwtable
define linkonce_odr void @_ZNSt6threadD2Ev(ptr noundef nonnull align 8 dereferenceable(8) %0) unnamed_addr #0 comdat align 2 {
  %2 = alloca ptr, align 8
  store ptr %0, ptr %2, align 8, !tbaa !59
  %3 = load ptr, ptr %2, align 8
  %4 = call noundef zeroext i1 @_ZNKSt6thread8joinableEv(ptr noundef nonnull align 8 dereferenceable(8) %3) #21
  br i1 %4, label %5, label %6

5:                                                ; preds = %1
  call void @_ZSt11__terminatev() #28
  unreachable

6:                                                ; preds = %1
  ret void
}

; Function Attrs: mustprogress nounwind uwtable
define linkonce_odr void @_ZN5folly8FunctionIFvvEED2Ev(ptr noundef nonnull align 16 dereferenceable(64) %0) unnamed_addr #0 comdat align 2 personality ptr @__gxx_personality_v0 {
  %2 = alloca ptr, align 8
  store ptr %0, ptr %2, align 8, !tbaa !64
  %3 = load ptr, ptr %2, align 8
  %4 = getelementptr inbounds nuw %"class.folly::Function", ptr %3, i32 0, i32 0
  %5 = invoke noundef i64 @_ZNK5folly8FunctionIFvvEE4execENS_6detail8function2OpEPNS4_4DataES7_(ptr noundef nonnull align 16 dereferenceable(64) %3, i32 noundef 1, ptr noundef %4, ptr noundef null)
          to label %6 unwind label %7

6:                                                ; preds = %1
  ret void

7:                                                ; preds = %1
  %8 = landingpad { ptr, i32 }
          catch ptr null
  %9 = extractvalue { ptr, i32 } %8, 0
  call void @__clang_call_terminate(ptr %9) #28
  unreachable
}

; Function Attrs: mustprogress nounwind uwtable
define internal void @"_ZN5folly8FunctionIFvvEEC2IZNS_21ThreadWheelTimekeeperD1EvE3$_0vvEET_"(ptr noundef nonnull align 16 dereferenceable(64) %0, ptr %1) unnamed_addr #0 align 2 {
  %3 = alloca %class.anon.97, align 8
  %4 = alloca ptr, align 8
  %5 = getelementptr inbounds nuw %class.anon.97, ptr %3, i32 0, i32 0
  store ptr %1, ptr %5, align 8
  store ptr %0, ptr %4, align 8, !tbaa !64
  %6 = load ptr, ptr %4, align 8
  %7 = getelementptr inbounds nuw %"class.folly::Function", ptr %6, i32 0, i32 0
  %8 = call noundef ptr @_ZNK5folly29unsafe_default_initialized_cvcvT_IPvEEv(ptr noundef nonnull align 1 dereferenceable(1) @_ZN5folly26unsafe_default_initializedE) #21
  store ptr %8, ptr %7, align 16, !tbaa !66
  %9 = getelementptr inbounds nuw %"class.folly::Function", ptr %6, i32 0, i32 1
  store ptr @_ZN5folly6detail8function14FunctionTraitsIFvvEE10uninitCallERNS1_4DataE, ptr %9, align 16, !tbaa !67
  %10 = getelementptr inbounds nuw %"class.folly::Function", ptr %6, i32 0, i32 2
  store ptr null, ptr %10, align 8, !tbaa !69
  %11 = getelementptr inbounds nuw %"class.folly::Function", ptr %6, i32 0, i32 0
  call void @llvm.memcpy.p0.p0.i64(ptr align 16 %11, ptr align 8 %3, i64 8, i1 false), !tbaa.struct !70
  %12 = getelementptr inbounds nuw %"class.folly::Function", ptr %6, i32 0, i32 1
  store ptr @"_ZN5folly6detail8function5call_IZNS_21ThreadWheelTimekeeperD1EvE3$_0Lb1ELb0EvJEEET2_DpT3_RNS1_4DataE", ptr %12, align 16, !tbaa !67
  %13 = getelementptr inbounds nuw %"class.folly::Function", ptr %6, i32 0, i32 2
  store ptr @_ZN5folly6detail8function20DispatchSmallTrivial5exec_ILm16EEEmNS1_2OpEPNS1_4DataES6_, ptr %13, align 8, !tbaa !69
  ret void
}

; Function Attrs: mustprogress nounwind uwtable
define void @_ZN5folly21ThreadWheelTimekeeperD2Ev(ptr noundef nonnull align 16 dereferenceable(664) %0) unnamed_addr #0 align 2 personality ptr @__gxx_personality_v0 {
  %2 = alloca ptr, align 8
  %3 = alloca %"class.folly::Function", align 16
  %4 = alloca %class.anon.97, align 8
  store ptr %0, ptr %2, align 8, !tbaa !33
  %5 = load ptr, ptr %2, align 8
  store ptr getelementptr inbounds inrange(-16, 24) ({ [5 x ptr] }, ptr @_ZTVN5folly21ThreadWheelTimekeeperE, i32 0, i32 0, i32 2), ptr %5, align 16, !tbaa !35
  %6 = getelementptr inbounds nuw %"class.folly::ThreadWheelTimekeeper", ptr %5, i32 0, i32 1
  %7 = getelementptr inbounds nuw %class.anon.97, ptr %4, i32 0, i32 0
  store ptr %5, ptr %7, align 8, !tbaa !146
  %8 = getelementptr inbounds nuw %class.anon.97, ptr %4, i32 0, i32 0
  %9 = load ptr, ptr %8, align 8
  call void @"_ZN5folly8FunctionIFvvEEC2IZNS_21ThreadWheelTimekeeperD1EvE3$_0vvEET_"(ptr noundef nonnull align 16 dereferenceable(64) %3, ptr %9) #21
  call void @_ZN5folly9EventBase27runInEventBaseThreadAndWaitENS_8FunctionIFvvEEE(ptr noundef nonnull align 16 dereferenceable(632) %6, ptr noundef %3) #21
  call void @_ZN5folly8FunctionIFvvEED2Ev(ptr noundef nonnull align 16 dereferenceable(64) %3) #21
  %10 = getelementptr inbounds nuw %"class.folly::ThreadWheelTimekeeper", ptr %5, i32 0, i32 2
  invoke void @_ZNSt6thread4joinEv(ptr noundef nonnull align 8 dereferenceable(8) %10)
          to label %11 unwind label %14

11:                                               ; preds = %1
  %12 = getelementptr inbounds nuw %"class.folly::ThreadWheelTimekeeper", ptr %5, i32 0, i32 2
  call void @_ZNSt6threadD2Ev(ptr noundef nonnull align 8 dereferenceable(8) %12) #21
  %13 = getelementptr inbounds nuw %"class.folly::ThreadWheelTimekeeper", ptr %5, i32 0, i32 1
  call void @_ZN5folly9EventBaseD1Ev(ptr noundef nonnull align 16 dereferenceable(632) %13) #21
  call void @_ZN5folly10TimekeeperD2Ev(ptr noundef nonnull align 8 dereferenceable(16) %5) #21
  ret void

14:                                               ; preds = %1
  %15 = landingpad { ptr, i32 }
          catch ptr null
  %16 = extractvalue { ptr, i32 } %15, 0
  call void @__clang_call_terminate(ptr %16) #28
  unreachable
}