; Function Attrs: mustprogress nounwind uwtable
define void @_ZN5folly21ThreadWheelTimekeeperD2Ev(ptr noundef nonnull align 16 dereferenceable(664) initializes((0, 8)) %0) unnamed_addr #0 align 2 personality ptr @__gxx_personality_v0 {
  %2 = alloca %"class.folly::Function", align 16
  store ptr getelementptr inbounds nuw inrange(-16, 24) (i8, ptr @_ZTVN5folly21ThreadWheelTimekeeperE, i64 16), ptr %0, align 16, !tbaa !37
  %3 = getelementptr inbounds nuw i8, ptr %0, i64 16
  %4 = getelementptr inbounds nuw i8, ptr %2, i64 48
  %5 = getelementptr inbounds nuw i8, ptr %2, i64 56
  store ptr %0, ptr %2, align 16, !tbaa !53
  store ptr @"_ZN5folly6detail8function5call_IZNS_21ThreadWheelTimekeeperD1EvE3$_0Lb1ELb0EvJEEET2_DpT3_RNS1_4DataE", ptr %4, align 16, !tbaa !27
  store ptr @_ZN5folly6detail8function20DispatchSmallTrivial5exec_ILm16EEEmNS1_2OpEPNS1_4DataES6_, ptr %5, align 8, !tbaa !29
  call void @_ZN5folly9EventBase27runInEventBaseThreadAndWaitENS_8FunctionIFvvEEE(ptr noundef nonnull align 16 dereferenceable(632) %3, ptr noundef nonnull %2) #15
  %6 = load ptr, ptr %5, align 8, !tbaa !29
  %.not.i.i = icmp eq ptr %6, null
  br i1 %.not.i.i, label %_ZN5folly8FunctionIFvvEED2Ev.exit, label %7

7:                                                ; preds = %1
  %8 = call noundef i64 %6(i32 noundef 1, ptr noundef nonnull align 16 dereferenceable(64) %2, ptr noundef null) #15
  br label %_ZN5folly8FunctionIFvvEED2Ev.exit

_ZN5folly8FunctionIFvvEED2Ev.exit:                ; preds = %1, %7
  %9 = getelementptr inbounds nuw i8, ptr %0, i64 656
  invoke void @_ZNSt6thread4joinEv(ptr noundef nonnull align 8 dereferenceable(8) %9)
          to label %10 unwind label %12

10:                                               ; preds = %_ZN5folly8FunctionIFvvEED2Ev.exit
  %.sroa.0.0.copyload.i.i = load i64, ptr %9, align 16, !tbaa !26
  %.not.i = icmp eq i64 %.sroa.0.0.copyload.i.i, 0
  br i1 %.not.i, label %_ZNSt6threadD2Ev.exit, label %11

11:                                               ; preds = %10
  call void @_ZSt9terminatev() #23
  unreachable

_ZNSt6threadD2Ev.exit:                            ; preds = %10
  call void @_ZN5folly9EventBaseD1Ev(ptr noundef nonnull align 16 dereferenceable(632) %3) #15
  ret void

12:                                               ; preds = %_ZN5folly8FunctionIFvvEED2Ev.exit
  %13 = landingpad { ptr, i32 }
          catch ptr null
  %14 = extractvalue { ptr, i32 } %13, 0
  call void @__clang_call_terminate(ptr %14) #23
  unreachable
}